; Function Attrs: nounwind sspstrong uwtable
define dso_local void @tcg_gen_br(ptr noundef %0) local_unnamed_addr #2 {
  %2 = ptrtoint ptr %0 to i64
  %3 = tail call ptr @tcg_gen_op1(i32 noundef 3, i32 noundef 0, i64 noundef %2)
  %4 = tail call align 8 ptr @llvm.threadlocal.address.p0(ptr align 8 @tcg_ctx)
  %5 = load ptr, ptr %4, align 8
  %6 = load ptr, ptr %5, align 8
  %7 = getelementptr inbounds nuw i8, ptr %6, i64 16
  %8 = getelementptr inbounds nuw i8, ptr %5, i64 8
  %9 = load ptr, ptr %8, align 8
  %10 = icmp ugt ptr %7, %9
  br i1 %10, label %11, label %13, !prof !4

11:                                               ; preds = %1
  %12 = tail call ptr @tcg_malloc_internal(ptr noundef nonnull %5, i32 noundef 16) #6
  br label %add_as_label_use.exit

13:                                               ; preds = %1
  store ptr %7, ptr %5, align 8
  br label %add_as_label_use.exit

add_as_label_use.exit:                            ; preds = %11, %13
  %.0.i.i = phi ptr [ %12, %11 ], [ %6, %13 ]
  %14 = getelementptr inbounds nuw i8, ptr %.0.i.i, i64 8
  store ptr %3, ptr %14, align 8
  store ptr null, ptr %.0.i.i, align 8
  %15 = getelementptr inbounds nuw i8, ptr %0, i64 24
  %16 = load ptr, ptr %15, align 8
  store ptr %.0.i.i, ptr %16, align 8
  store ptr %.0.i.i, ptr %15, align 8
  ret void
}